target datalayout = "e-m:e-p270:32:32-p271:32:32-p272:64:64-i64:64-i128:128-f80:128-n8:16:32:64-S128"
target triple = "x86_64-pc-linux-gnu"

@hf_ex_avaya_tlv_subtype = internal global i32 0, align 4
@hf_ex_avaya_hmac_shi = internal global i32 0, align 4
@hf_ex_avaya_element_type = internal global i32 0, align 4
@hf_ex_avaya_state = internal global i32 0, align 4
@hf_ex_avaya_mgnt_vlan = internal global i32 0, align 4
@hf_ex_avaya_vlan = internal global i32 0, align 4
@hf_ex_avaya_rsvd = internal global i32 0, align 4
@hf_ex_avaya_system_id = internal global i32 0, align 4
@hf_ex_avaya_status = internal global i32 0, align 4
@hf_ex_avaya_i_sid = internal global i32 0, align 4

; Function Attrs: null_pointer_is_valid sspstrong uwtable
define internal i32 @dissect_extreme_avaya_tlv(ptr noundef %0, ptr noundef %1, ptr noundef %2, i16 noundef zeroext %3) #0 {
  %5 = alloca ptr, align 8
  %6 = alloca ptr, align 8
  %7 = alloca ptr, align 8
  %8 = alloca i16, align 2
  %9 = alloca i8, align 1
  %10 = alloca i32, align 4
  %11 = alloca i32, align 4
  %12 = alloca i32, align 4
  store ptr %0, ptr %5, align 8
  store ptr %1, ptr %6, align 8
  store ptr %2, ptr %7, align 8
  store i16 %3, ptr %8, align 2
  call void @llvm.lifetime.start.p0(i64 1, ptr %9) #9
  call void @llvm.lifetime.start.p0(i64 4, ptr %10) #9
  call void @llvm.lifetime.start.p0(i64 4, ptr %11) #9
  call void @llvm.lifetime.start.p0(i64 4, ptr %12) #9
  store i32 0, ptr %12, align 4
  %13 = load ptr, ptr %5, align 8
  %14 = load i32, ptr %12, align 4
  %15 = call zeroext i8 @tvb_get_uint8(ptr noundef %13, i32 noundef %14)
  store i8 %15, ptr %9, align 1
  %16 = load ptr, ptr %7, align 8
  %17 = load i32, ptr @hf_ex_avaya_tlv_subtype, align 4
  %18 = load ptr, ptr %5, align 8
  %19 = load i32, ptr %12, align 4
  %20 = call ptr @proto_tree_add_item(ptr noundef %16, i32 noundef %17, ptr noundef %18, i32 noundef %19, i32 noundef 1, i32 noundef 0)
  %21 = load i32, ptr %12, align 4
  %22 = add i32 %21, 1
  store i32 %22, ptr %12, align 4
  %23 = load i8, ptr %9, align 1
  %24 = zext i8 %23 to i32
  switch i32 %24, label %104 [
    i32 11, label %25
    i32 12, label %64
  ]

25:                                               ; preds = %4
  %26 = load ptr, ptr %7, align 8
  %27 = load i32, ptr @hf_ex_avaya_hmac_shi, align 4
  %28 = load ptr, ptr %5, align 8
  %29 = load i32, ptr %12, align 4
  %30 = call ptr @proto_tree_add_item(ptr noundef %26, i32 noundef %27, ptr noundef %28, i32 noundef %29, i32 noundef 32, i32 noundef 0)
  %31 = load i32, ptr %12, align 4
  %32 = add i32 %31, 32
  store i32 %32, ptr %12, align 4
  %33 = load ptr, ptr %7, align 8
  %34 = load i32, ptr @hf_ex_avaya_element_type, align 4
  %35 = load ptr, ptr %5, align 8
  %36 = load i32, ptr %12, align 4
  %37 = call ptr @proto_tree_add_item(ptr noundef %33, i32 noundef %34, ptr noundef %35, i32 noundef %36, i32 noundef 3, i32 noundef 0)
  %38 = load ptr, ptr %7, align 8
  %39 = load i32, ptr @hf_ex_avaya_state, align 4
  %40 = load ptr, ptr %5, align 8
  %41 = load i32, ptr %12, align 4
  %42 = call ptr @proto_tree_add_item(ptr noundef %38, i32 noundef %39, ptr noundef %40, i32 noundef %41, i32 noundef 3, i32 noundef 0)
  %43 = load ptr, ptr %7, align 8
  %44 = load i32, ptr @hf_ex_avaya_mgnt_vlan, align 4
  %45 = load ptr, ptr %5, align 8
  %46 = load i32, ptr %12, align 4
  %47 = call ptr @proto_tree_add_item(ptr noundef %43, i32 noundef %44, ptr noundef %45, i32 noundef %46, i32 noundef 3, i32 noundef 0)
  %48 = load i32, ptr %12, align 4
  %49 = add i32 %48, 3
  store i32 %49, ptr %12, align 4
  %50 = load ptr, ptr %7, align 8
  %51 = load i32, ptr @hf_ex_avaya_rsvd, align 4
  %52 = load ptr, ptr %5, align 8
  %53 = load i32, ptr %12, align 4
  %54 = call ptr @proto_tree_add_item(ptr noundef %50, i32 noundef %51, ptr noundef %52, i32 noundef %53, i32 noundef 1, i32 noundef 0)
  %55 = load i32, ptr %12, align 4
  %56 = add i32 %55, 1
  store i32 %56, ptr %12, align 4
  %57 = load ptr, ptr %7, align 8
  %58 = load i32, ptr @hf_ex_avaya_system_id, align 4
  %59 = load ptr, ptr %5, align 8
  %60 = load i32, ptr %12, align 4
  %61 = call ptr @proto_tree_add_item(ptr noundef %57, i32 noundef %58, ptr noundef %59, i32 noundef %60, i32 noundef 10, i32 noundef 0)
  %62 = load i32, ptr %12, align 4
  %63 = add i32 %62, 10
  store i32 %63, ptr %12, align 4
  br label %104

64:                                               ; preds = %4
  %65 = load i16, ptr %8, align 2
  %66 = zext i16 %65 to i32
  %67 = sub i32 %66, 36
  %68 = sdiv i32 %67, 5
  store i32 %68, ptr %11, align 4
  %69 = load ptr, ptr %7, align 8
  %70 = load i32, ptr @hf_ex_avaya_hmac_shi, align 4
  %71 = load ptr, ptr %5, align 8
  %72 = load i32, ptr %12, align 4
  %73 = call ptr @proto_tree_add_item(ptr noundef %69, i32 noundef %70, ptr noundef %71, i32 noundef %72, i32 noundef 32, i32 noundef 0)
  %74 = load i32, ptr %12, align 4
  %75 = add i32 %74, 32
  store i32 %75, ptr %12, align 4
  store i32 0, ptr %10, align 4
  br label %76

76:                                               ; preds = %100, %64
  %77 = load i32, ptr %10, align 4
  %78 = load i32, ptr %11, align 4
  %79 = icmp ult i32 %77, %78
  br i1 %79, label %80, label %103

80:                                               ; preds = %76
  %81 = load ptr, ptr %7, align 8
  %82 = load i32, ptr @hf_ex_avaya_status, align 4
  %83 = load ptr, ptr %5, align 8
  %84 = load i32, ptr %12, align 4
  %85 = call ptr @proto_tree_add_item(ptr noundef %81, i32 noundef %82, ptr noundef %83, i32 noundef %84, i32 noundef 2, i32 noundef 0)
  %86 = load ptr, ptr %7, align 8
  %87 = load i32, ptr @hf_ex_avaya_vlan, align 4
  %88 = load ptr, ptr %5, align 8
  %89 = load i32, ptr %12, align 4
  %90 = call ptr @proto_tree_add_item(ptr noundef %86, i32 noundef %87, ptr noundef %88, i32 noundef %89, i32 noundef 2, i32 noundef 0)
  %91 = load i32, ptr %12, align 4
  %92 = add i32 %91, 2
  store i32 %92, ptr %12, align 4
  %93 = load ptr, ptr %7, align 8
  %94 = load i32, ptr @hf_ex_avaya_i_sid, align 4
  %95 = load ptr, ptr %5, align 8
  %96 = load i32, ptr %12, align 4
  %97 = call ptr @proto_tree_add_item(ptr noundef %93, i32 noundef %94, ptr noundef %95, i32 noundef %96, i32 noundef 3, i32 noundef 0)
  %98 = load i32, ptr %12, align 4
  %99 = add i32 %98, 3
  store i32 %99, ptr %12, align 4
  br label %100

100:                                              ; preds = %80
  %101 = load i32, ptr %10, align 4
  %102 = add i32 %101, 1
  store i32 %102, ptr %10, align 4
  br label %76, !llvm.loop !22

103:                                              ; preds = %76
  br label %104

104:                                              ; preds = %4, %103, %25
  %105 = load i32, ptr %12, align 4
  call void @llvm.lifetime.end.p0(i64 4, ptr %12) #9
  call void @llvm.lifetime.end.p0(i64 4, ptr %11) #9
  call void @llvm.lifetime.end.p0(i64 4, ptr %10) #9
  call void @llvm.lifetime.end.p0(i64 1, ptr %9) #9
  ret i32 %105
}