; Function Attrs: null_pointer_is_valid sspstrong uwtable
define internal fastcc void @dissect_extreme_avaya_tlv(ptr noundef %0, ptr noundef %1, i16 noundef zeroext range(i16 0, 512) %2) unnamed_addr #0 {
  %4 = tail call zeroext i8 @tvb_get_uint8(ptr noundef %0, i32 noundef 0)
  %5 = load i32, ptr @hf_ex_avaya_tlv_subtype, align 4
  %6 = tail call ptr @proto_tree_add_item(ptr noundef %1, i32 noundef %5, ptr noundef %0, i32 noundef 0, i32 noundef 1, i32 noundef 0)
  switch i8 %4, label %.loopexit [
    i8 11, label %7
    i8 12, label %20
  ]

7:                                                ; preds = %3
  %8 = load i32, ptr @hf_ex_avaya_hmac_shi, align 4
  %9 = tail call ptr @proto_tree_add_item(ptr noundef %1, i32 noundef %8, ptr noundef %0, i32 noundef 1, i32 noundef 32, i32 noundef 0)
  %10 = load i32, ptr @hf_ex_avaya_element_type, align 4
  %11 = tail call ptr @proto_tree_add_item(ptr noundef %1, i32 noundef %10, ptr noundef %0, i32 noundef 33, i32 noundef 3, i32 noundef 0)
  %12 = load i32, ptr @hf_ex_avaya_state, align 4
  %13 = tail call ptr @proto_tree_add_item(ptr noundef %1, i32 noundef %12, ptr noundef %0, i32 noundef 33, i32 noundef 3, i32 noundef 0)
  %14 = load i32, ptr @hf_ex_avaya_mgnt_vlan, align 4
  %15 = tail call ptr @proto_tree_add_item(ptr noundef %1, i32 noundef %14, ptr noundef %0, i32 noundef 33, i32 noundef 3, i32 noundef 0)
  %16 = load i32, ptr @hf_ex_avaya_rsvd, align 4
  %17 = tail call ptr @proto_tree_add_item(ptr noundef %1, i32 noundef %16, ptr noundef %0, i32 noundef 36, i32 noundef 1, i32 noundef 0)
  %18 = load i32, ptr @hf_ex_avaya_system_id, align 4
  %19 = tail call ptr @proto_tree_add_item(ptr noundef %1, i32 noundef %18, ptr noundef %0, i32 noundef 37, i32 noundef 10, i32 noundef 0)
  br label %.loopexit

20:                                               ; preds = %3
  %21 = load i32, ptr @hf_ex_avaya_hmac_shi, align 4
  %22 = tail call ptr @proto_tree_add_item(ptr noundef %1, i32 noundef %21, ptr noundef %0, i32 noundef 1, i32 noundef 32, i32 noundef 0)
  %.lhs.trunc.off = add nsw i16 %2, -32
  %.not = icmp ult i16 %.lhs.trunc.off, 9
  br i1 %.not, label %.loopexit, label %.lr.ph.preheader

.lr.ph.preheader:                                 ; preds = %20
  %.lhs.trunc = add nsw i16 %2, -36
  %23 = sdiv i16 %.lhs.trunc, 5
  %24 = tail call i16 @llvm.umax.i16(i16 %23, i16 1)
  %umax = sext i16 %24 to i32
  br label %.lr.ph

.lr.ph:                                           ; preds = %.lr.ph.preheader, %.lr.ph
  %.12 = phi i32 [ %32, %.lr.ph ], [ 33, %.lr.ph.preheader ]
  %.0481 = phi i32 [ %33, %.lr.ph ], [ 0, %.lr.ph.preheader ]
  %25 = load i32, ptr @hf_ex_avaya_status, align 4
  %26 = tail call ptr @proto_tree_add_item(ptr noundef %1, i32 noundef %25, ptr noundef %0, i32 noundef %.12, i32 noundef 2, i32 noundef 0)
  %27 = load i32, ptr @hf_ex_avaya_vlan, align 4
  %28 = tail call ptr @proto_tree_add_item(ptr noundef %1, i32 noundef %27, ptr noundef %0, i32 noundef %.12, i32 noundef 2, i32 noundef 0)
  %29 = add i32 %.12, 2
  %30 = load i32, ptr @hf_ex_avaya_i_sid, align 4
  %31 = tail call ptr @proto_tree_add_item(ptr noundef %1, i32 noundef %30, ptr noundef %0, i32 noundef %29, i32 noundef 3, i32 noundef 0)
  %32 = add i32 %.12, 5
  %33 = add nuw i32 %.0481, 1
  %exitcond.not = icmp eq i32 %33, %umax
  br i1 %exitcond.not, label %.loopexit, label %.lr.ph, !llvm.loop !20

.loopexit:                                        ; preds = %.lr.ph, %20, %7, %3
  ret void
}